; Function Attrs: nofree norecurse nosync nounwind memory(read, argmem: readwrite, inaccessiblemem: none) uwtable
define hidden zeroext range(i8 0, 64) i8 @luaH_getshortstr(ptr noundef readonly captures(none) %0, ptr noundef readonly captures(address) %1, ptr noundef writeonly captures(none) %2) local_unnamed_addr #6 {
  %4 = getelementptr inbounds nuw i8, ptr %0, i64 24
  %5 = load ptr, ptr %4, align 8, !tbaa !18
  %6 = getelementptr inbounds nuw i8, ptr %1, i64 12
  %7 = load i32, ptr %6, align 4, !tbaa !25
  %8 = getelementptr inbounds nuw i8, ptr %0, i64 11
  %9 = load i8, ptr %8, align 1, !tbaa !20
  %10 = zext nneg i8 %9 to i32
  %notmask.i = shl nsw i32 -1, %10
  %11 = xor i32 %notmask.i, -1
  %12 = and i32 %7, %11
  %13 = zext nneg i32 %12 to i64
  %14 = getelementptr inbounds nuw %union.Node, ptr %5, i64 %13
  br label %15

15:                                               ; preds = %23, %3
  %.013.i = phi ptr [ %14, %3 ], [ %27, %23 ]
  %16 = getelementptr inbounds nuw i8, ptr %.013.i, i64 9
  %17 = load i8, ptr %16, align 1, !tbaa !16
  %18 = icmp eq i8 %17, 68
  br i1 %18, label %19, label %23

19:                                               ; preds = %15
  %20 = getelementptr inbounds nuw i8, ptr %.013.i, i64 16
  %21 = load ptr, ptr %20, align 8, !tbaa !16
  %22 = icmp eq ptr %21, %1
  br i1 %22, label %luaH_Hgetshortstr.exit, label %23

23:                                               ; preds = %19, %15
  %24 = getelementptr inbounds nuw i8, ptr %.013.i, i64 12
  %25 = load i32, ptr %24, align 4, !tbaa !16
  %.not.i = icmp eq i32 %25, 0
  %26 = sext i32 %25 to i64
  %27 = getelementptr inbounds %union.Node, ptr %.013.i, i64 %26
  br i1 %.not.i, label %luaH_Hgetshortstr.exit, label %15

luaH_Hgetshortstr.exit:                           ; preds = %19, %23
  %.1.i = phi ptr [ @absentkey, %23 ], [ %.013.i, %19 ]
  %28 = getelementptr inbounds nuw i8, ptr %.1.i, i64 8
  %29 = load i8, ptr %28, align 8, !tbaa !14
  %30 = and i8 %29, 15
  %31 = icmp eq i8 %30, 0
  br i1 %31, label %finishnodeget.exit, label %32

32:                                               ; preds = %luaH_Hgetshortstr.exit
  %33 = load i64, ptr %.1.i, align 8, !tbaa !16
  store i64 %33, ptr %2, align 8, !tbaa !16
  %34 = load i8, ptr %28, align 8, !tbaa !14
  %35 = getelementptr inbounds nuw i8, ptr %2, i64 8
  store i8 %34, ptr %35, align 8, !tbaa !14
  br label %finishnodeget.exit

finishnodeget.exit:                               ; preds = %luaH_Hgetshortstr.exit, %32
  %36 = phi i8 [ %34, %32 ], [ %29, %luaH_Hgetshortstr.exit ]
  %37 = and i8 %36, 63
  ret i8 %37
}